; Function Attrs: mustprogress uwtable
define void @_ZN6casadi11GenericTypeC2ERKSt6vectorIS1_IS0_SaIS0_EESaIS3_EE(ptr noundef nonnull align 8 dereferenceable(8) initializes((0, 8)) %0, ptr noundef nonnull align 8 dereferenceable(24) %1) unnamed_addr #3 align 2 personality ptr @__gxx_personality_v0 {
  store ptr null, ptr %0, align 8, !tbaa !180
  %3 = invoke noalias noundef nonnull dereferenceable(48) ptr @_Znwm(i64 noundef 48) #27
          to label %4 unwind label %9

4:                                                ; preds = %2
  %5 = getelementptr inbounds nuw i8, ptr %3, i64 8
  tail call void @llvm.memset.p0.i64(ptr noundef nonnull align 8 dereferenceable(16) %5, i8 0, i64 16, i1 false)
  store ptr getelementptr inbounds nuw inrange(-16, 48) (i8, ptr @_ZTVN6casadi19GenericTypeInternalILNS_6TypeIDE18ESt6vectorIS2_INS_11GenericTypeESaIS3_EESaIS5_EEEE, i64 16), ptr %3, align 8, !tbaa !3
  %6 = getelementptr inbounds nuw i8, ptr %3, i64 24
  invoke void @_ZNSt6vectorIS_IN6casadi11GenericTypeESaIS1_EESaIS3_EEC2ERKS5_(ptr noundef nonnull align 8 dereferenceable(24) %6, ptr noundef nonnull align 8 dereferenceable(24) %1)
          to label %_ZN6casadi19GenericTypeInternalILNS_6TypeIDE18ESt6vectorIS2_INS_11GenericTypeESaIS3_EESaIS5_EEEC2ERKS7_.exit unwind label %.body

.body:                                            ; preds = %4
  %7 = landingpad { ptr, i32 }
          cleanup
  tail call void @_ZN6casadi21GenericSharedInternalINS_12SharedObjectENS_20SharedObjectInternalEED2Ev(ptr noundef nonnull align 8 dereferenceable(48) %3) #23
  tail call void @_ZdlPvm(ptr noundef nonnull %3, i64 noundef 48) #24
  br label %11

_ZN6casadi19GenericTypeInternalILNS_6TypeIDE18ESt6vectorIS2_INS_11GenericTypeESaIS3_EESaIS5_EEEC2ERKS7_.exit: ; preds = %4
  invoke void @_ZN6casadi13GenericSharedINS_12SharedObjectENS_20SharedObjectInternalEE3ownEPS2_(ptr noundef nonnull align 8 dereferenceable(8) %0, ptr noundef nonnull %3)
          to label %8 unwind label %9

8:                                                ; preds = %_ZN6casadi19GenericTypeInternalILNS_6TypeIDE18ESt6vectorIS2_INS_11GenericTypeESaIS3_EESaIS5_EEEC2ERKS7_.exit
  ret void

9:                                                ; preds = %_ZN6casadi19GenericTypeInternalILNS_6TypeIDE18ESt6vectorIS2_INS_11GenericTypeESaIS3_EESaIS5_EEEC2ERKS7_.exit, %2
  %10 = landingpad { ptr, i32 }
          cleanup
  br label %11

11:                                               ; preds = %.body, %9
  %.pn = phi { ptr, i32 } [ %10, %9 ], [ %7, %.body ]
  invoke void @_ZN6casadi13GenericSharedINS_12SharedObjectENS_20SharedObjectInternalEE10count_downEv(ptr noundef nonnull align 8 dereferenceable(8) %0)
          to label %_ZN6casadi13GenericSharedINS_12SharedObjectENS_20SharedObjectInternalEED2Ev.exit unwind label %12

12:                                               ; preds = %11
  %13 = landingpad { ptr, i32 }
          catch ptr null
  %14 = extractvalue { ptr, i32 } %13, 0
  tail call void @__clang_call_terminate(ptr %14) #25
  unreachable

_ZN6casadi13GenericSharedINS_12SharedObjectENS_20SharedObjectInternalEED2Ev.exit: ; preds = %11
  resume { ptr, i32 } %.pn
}